target datalayout = "e-m:e-p270:32:32-p271:32:32-p272:64:64-i64:64-i128:128-f80:128-n8:16:32:64-S128"
target triple = "x86_64-pc-linux-gnu"

%class.RtpAudioFile = type { %class.QIODevice, ptr, ptr, i64, i64, i64, i64, %struct.rtp_frame_info }
%class.QIODevice = type { %class.QObject }
%class.QObject = type { ptr, %class.QScopedPointer }
%class.QScopedPointer = type { ptr }
%struct.rtp_frame_info = type { i64, i64, i64, i32, i32 }

; Function Attrs: mustprogress uwtable
define noundef i64 @_ZN12RtpAudioFile13readFrameDataEPcx(ptr noundef nonnull align 8 dereferenceable(96) %0, ptr noundef %1, i64 noundef %2) #0 align 2 {
  %4 = alloca i64, align 8
  %5 = alloca ptr, align 8
  %6 = alloca ptr, align 8
  %7 = alloca i64, align 8
  %8 = alloca i64, align 8
  %9 = alloca i64, align 8
  store ptr %0, ptr %5, align 8
  store ptr %1, ptr %6, align 8
  store i64 %2, ptr %7, align 8
  %10 = load ptr, ptr %5, align 8
  %11 = getelementptr inbounds %class.RtpAudioFile, ptr %10, i32 0, i32 7
  %12 = getelementptr inbounds %struct.rtp_frame_info, ptr %11, i32 0, i32 2
  %13 = load i64, ptr %12, align 8
  %14 = getelementptr inbounds %class.RtpAudioFile, ptr %10, i32 0, i32 3
  %15 = load i64, ptr %14, align 8
  %16 = getelementptr inbounds %class.RtpAudioFile, ptr %10, i32 0, i32 7
  %17 = getelementptr inbounds %struct.rtp_frame_info, ptr %16, i32 0, i32 0
  %18 = load i64, ptr %17, align 8
  %19 = sub i64 %15, %18
  %20 = sub i64 %13, %19
  store i64 %20, ptr %8, align 8
  %21 = load i64, ptr %8, align 8
  %22 = load i64, ptr %7, align 8
  %23 = icmp slt i64 %21, %22
  br i1 %23, label %24, label %25

24:                                               ; preds = %3
  store i64 -1, ptr %4, align 8
  br label %50

25:                                               ; preds = %3
  %26 = getelementptr inbounds %class.RtpAudioFile, ptr %10, i32 0, i32 7
  %27 = getelementptr inbounds %struct.rtp_frame_info, ptr %26, i32 0, i32 4
  %28 = load i32, ptr %27, align 4
  %29 = icmp eq i32 %28, 0
  br i1 %29, label %30, label %40

30:                                               ; preds = %25
  %31 = getelementptr inbounds %class.RtpAudioFile, ptr %10, i32 0, i32 1
  %32 = load ptr, ptr %31, align 8
  %33 = load ptr, ptr %6, align 8
  %34 = load i64, ptr %7, align 8
  %35 = call noundef i64 @_ZN9QIODevice4readEPcx(ptr noundef nonnull align 8 dereferenceable(16) %32, ptr noundef %33, i64 noundef %34)
  store i64 %35, ptr %9, align 8
  %36 = load i64, ptr %9, align 8
  %37 = getelementptr inbounds %class.RtpAudioFile, ptr %10, i32 0, i32 3
  %38 = load i64, ptr %37, align 8
  %39 = add i64 %38, %36
  store i64 %39, ptr %37, align 8
  br label %48

40:                                               ; preds = %25
  %41 = load ptr, ptr %6, align 8
  %42 = load i64, ptr %7, align 8
  call void @llvm.memset.p0.i64(ptr align 1 %41, i8 0, i64 %42, i1 false)
  %43 = load i64, ptr %7, align 8
  %44 = getelementptr inbounds %class.RtpAudioFile, ptr %10, i32 0, i32 3
  %45 = load i64, ptr %44, align 8
  %46 = add i64 %45, %43
  store i64 %46, ptr %44, align 8
  %47 = load i64, ptr %7, align 8
  store i64 %47, ptr %9, align 8
  br label %48

48:                                               ; preds = %40, %30
  %49 = load i64, ptr %9, align 8
  store i64 %49, ptr %4, align 8
  br label %50

50:                                               ; preds = %48, %24
  %51 = load i64, ptr %4, align 8
  ret i64 %51
}

; Function Attrs: mustprogress uwtable
define noundef i64 @_ZN12RtpAudioFile8readDataEPcx(ptr noundef nonnull align 8 dereferenceable(96) %0, ptr noundef %1, i64 noundef %2) unnamed_addr #0 align 2 {
  %4 = alloca i64, align 8
  %5 = alloca ptr, align 8
  %6 = alloca ptr, align 8
  %7 = alloca i64, align 8
  %8 = alloca i64, align 8
  %9 = alloca i64, align 8
  %10 = alloca i64, align 8
  %11 = alloca i64, align 8
  store ptr %0, ptr %5, align 8
  store ptr %1, ptr %6, align 8
  store i64 %2, ptr %7, align 8
  %12 = load ptr, ptr %5, align 8
  %13 = load i64, ptr %7, align 8
  store i64 %13, ptr %8, align 8
  store i64 0, ptr %10, align 8
  br label %14

14:                                               ; preds = %90, %3
  %15 = getelementptr inbounds %class.RtpAudioFile, ptr %12, i32 0, i32 7
  %16 = getelementptr inbounds %struct.rtp_frame_info, ptr %15, i32 0, i32 2
  %17 = load i64, ptr %16, align 8
  %18 = getelementptr inbounds %class.RtpAudioFile, ptr %12, i32 0, i32 3
  %19 = load i64, ptr %18, align 8
  %20 = getelementptr inbounds %class.RtpAudioFile, ptr %12, i32 0, i32 7
  %21 = getelementptr inbounds %struct.rtp_frame_info, ptr %20, i32 0, i32 0
  %22 = load i64, ptr %21, align 8
  %23 = sub i64 %19, %22
  %24 = sub i64 %17, %23
  store i64 %24, ptr %11, align 8
  %25 = load i64, ptr %11, align 8
  %26 = load i64, ptr %8, align 8
  %27 = icmp sgt i64 %25, %26
  br i1 %27, label %28, label %30

28:                                               ; preds = %14
  %29 = load i64, ptr %8, align 8
  store i64 %29, ptr %9, align 8
  br label %32

30:                                               ; preds = %14
  %31 = load i64, ptr %11, align 8
  store i64 %31, ptr %9, align 8
  br label %32

32:                                               ; preds = %30, %28
  %33 = load i64, ptr %9, align 8
  %34 = load ptr, ptr %6, align 8
  %35 = load i64, ptr %9, align 8
  %36 = call noundef i64 @_ZN12RtpAudioFile13readFrameDataEPcx(ptr noundef nonnull align 8 dereferenceable(96) %12, ptr noundef %34, i64 noundef %35)
  %37 = icmp eq i64 %33, %36
  br i1 %37, label %38, label %89

38:                                               ; preds = %32
  %39 = load i64, ptr %9, align 8
  %40 = load i64, ptr %8, align 8
  %41 = sub i64 %40, %39
  store i64 %41, ptr %8, align 8
  %42 = load i64, ptr %9, align 8
  %43 = load ptr, ptr %6, align 8
  %44 = getelementptr i8, ptr %43, i64 %42
  store ptr %44, ptr %6, align 8
  %45 = load i64, ptr %9, align 8
  %46 = load i64, ptr %10, align 8
  %47 = add i64 %46, %45
  store i64 %47, ptr %10, align 8
  %48 = getelementptr inbounds %class.RtpAudioFile, ptr %12, i32 0, i32 3
  %49 = load i64, ptr %48, align 8
  %50 = getelementptr inbounds %class.RtpAudioFile, ptr %12, i32 0, i32 7
  %51 = getelementptr inbounds %struct.rtp_frame_info, ptr %50, i32 0, i32 0
  %52 = load i64, ptr %51, align 8
  %53 = getelementptr inbounds %class.RtpAudioFile, ptr %12, i32 0, i32 7
  %54 = getelementptr inbounds %struct.rtp_frame_info, ptr %53, i32 0, i32 2
  %55 = load i64, ptr %54, align 8
  %56 = add i64 %52, %55
  %57 = icmp sge i64 %49, %56
  br i1 %57, label %58, label %83

58:                                               ; preds = %38
  %59 = getelementptr inbounds %class.RtpAudioFile, ptr %12, i32 0, i32 2
  %60 = load ptr, ptr %59, align 8
  %61 = getelementptr inbounds %class.RtpAudioFile, ptr %12, i32 0, i32 7
  %62 = call noundef i64 @_ZN9QIODevice4readEPcx(ptr noundef nonnull align 8 dereferenceable(16) %60, ptr noundef %61, i64 noundef 32)
  %63 = icmp ne i64 %62, 0
  br i1 %63, label %66, label %64

64:                                               ; preds = %58
  %65 = load i64, ptr %10, align 8
  store i64 %65, ptr %4, align 8
  br label %91

66:                                               ; preds = %58
  %67 = getelementptr inbounds %class.RtpAudioFile, ptr %12, i32 0, i32 7
  %68 = getelementptr inbounds %struct.rtp_frame_info, ptr %67, i32 0, i32 4
  %69 = load i32, ptr %68, align 4
  %70 = icmp eq i32 %69, 0
  br i1 %70, label %71, label %82

71:                                               ; preds = %66
  %72 = getelementptr inbounds %class.RtpAudioFile, ptr %12, i32 0, i32 1
  %73 = load ptr, ptr %72, align 8
  %74 = getelementptr inbounds %class.RtpAudioFile, ptr %12, i32 0, i32 7
  %75 = getelementptr inbounds %struct.rtp_frame_info, ptr %74, i32 0, i32 1
  %76 = load i64, ptr %75, align 8
  %77 = load ptr, ptr %73, align 8
  %78 = getelementptr inbounds ptr, ptr %77, i64 17
  %79 = load ptr, ptr %78, align 8
  %80 = call noundef zeroext i1 %79(ptr noundef nonnull align 8 dereferenceable(16) %73, i64 noundef %76)
  br i1 %80, label %82, label %81

81:                                               ; preds = %71
  store i64 -1, ptr %4, align 8
  br label %91

82:                                               ; preds = %71, %66
  br label %83

83:                                               ; preds = %82, %38
  %84 = load i64, ptr %8, align 8
  %85 = icmp eq i64 %84, 0
  br i1 %85, label %86, label %88

86:                                               ; preds = %83
  %87 = load i64, ptr %10, align 8
  store i64 %87, ptr %4, align 8
  br label %91

88:                                               ; preds = %83
  br label %90

89:                                               ; preds = %32
  store i64 -1, ptr %4, align 8
  br label %91

90:                                               ; preds = %88
  br label %14, !llvm.loop !7

91:                                               ; preds = %89, %86, %81, %64
  %92 = load i64, ptr %4, align 8
  ret i64 %92
}